; Function Attrs: nounwind uwtable
define ptr @l_Lean_RBMap_insert___rarg(ptr noundef %0, ptr noundef %1, ptr noundef %2, ptr noundef %3) #1 {
  %5 = ptrtoint ptr %1 to i64
  %6 = and i64 %5, 1
  %.not.i.i.i = icmp eq i64 %6, 0
  br i1 %.not.i.i.i, label %10, label %7

7:                                                ; preds = %4
  %8 = lshr i64 %5, 1
  %9 = trunc i64 %8 to i32
  br label %lean_obj_tag.exit.i.i

10:                                               ; preds = %4
  %11 = getelementptr i8, ptr %1, i64 4
  %.val.i.i.i = load i32, ptr %11, align 4
  %12 = lshr i32 %.val.i.i.i, 24
  br label %lean_obj_tag.exit.i.i

lean_obj_tag.exit.i.i:                            ; preds = %10, %7
  %.0.i.i.i = phi i32 [ %9, %7 ], [ %12, %10 ]
  %13 = icmp eq i32 %.0.i.i.i, 0
  br i1 %13, label %l_Lean_RBNode_isRed___rarg.exit.thread.i, label %l_Lean_RBNode_isRed___rarg.exit.i

l_Lean_RBNode_isRed___rarg.exit.i:                ; preds = %lean_obj_tag.exit.i.i
  %14 = getelementptr i8, ptr %1, i64 40
  %.val.i.i = load i8, ptr %14, align 1, !tbaa !18
  %.not.i = icmp eq i8 %.val.i.i, 0
  br i1 %.not.i, label %16, label %l_Lean_RBNode_isRed___rarg.exit.thread.i

l_Lean_RBNode_isRed___rarg.exit.thread.i:         ; preds = %l_Lean_RBNode_isRed___rarg.exit.i, %lean_obj_tag.exit.i.i
  %15 = tail call ptr @l_Lean_RBNode_ins___rarg(ptr noundef %0, ptr noundef %1, ptr noundef %2, ptr noundef %3)
  br label %l_Lean_RBNode_insert___rarg.exit

16:                                               ; preds = %l_Lean_RBNode_isRed___rarg.exit.i
  %17 = tail call ptr @l_Lean_RBNode_ins___rarg(ptr noundef %0, ptr noundef nonnull %1, ptr noundef %2, ptr noundef %3)
  %18 = tail call ptr @l_Lean_RBNode_setBlack___rarg(ptr noundef %17)
  br label %l_Lean_RBNode_insert___rarg.exit

l_Lean_RBNode_insert___rarg.exit:                 ; preds = %l_Lean_RBNode_isRed___rarg.exit.thread.i, %16
  %.0.i = phi ptr [ %15, %l_Lean_RBNode_isRed___rarg.exit.thread.i ], [ %18, %16 ]
  ret ptr %.0.i
}